target datalayout = "e-m:e-p270:32:32-p271:32:32-p272:64:64-i64:64-i128:128-f80:128-n8:16:32:64-S128"
target triple = "x86_64-pc-linux-gnu"

@.str.123 = private unnamed_addr constant [83 x i8] c"import _testinternalcapi, json; print(json.dumps(_testinternalcapi.get_configs()))\00", align 1
@.str.202 = private unnamed_addr constant [9 x i8] c"TESTPATH\00", align 1
@.str.203 = private unnamed_addr constant [25 x i8] c"missing TESTPATH env var\00", align 1
@.str.204 = private unnamed_addr constant [26 x i8] c"failed to decode TESTPATH\00", align 1
@.str.205 = private unnamed_addr constant [10 x i8] c"TESTPATH=\00", align 1

; Function Attrs: nounwind uwtable
define internal void @dump_config() #0 {
  %1 = call i32 @PyRun_SimpleStringFlags(ptr noundef @.str.123, ptr noundef null)
  ret void
}

; Function Attrs: nounwind uwtable
define internal i32 @test_init_setpath() #0 {
  %1 = alloca i32, align 4
  %2 = alloca ptr, align 8
  %3 = alloca i32, align 4
  %4 = alloca ptr, align 8
  call void @llvm.lifetime.start.p0(i64 8, ptr %2) #11
  %5 = call ptr @getenv(ptr noundef @.str.202) #11
  store ptr %5, ptr %2, align 8, !tbaa !16
  %6 = load ptr, ptr %2, align 8, !tbaa !16
  %7 = icmp ne ptr %6, null
  br i1 %7, label %9, label %8

8:                                                ; preds = %0
  call void @error(ptr noundef @.str.203)
  store i32 1, ptr %1, align 4
  store i32 1, ptr %3, align 4
  br label %20

9:                                                ; preds = %0
  call void @llvm.lifetime.start.p0(i64 8, ptr %4) #11
  %10 = load ptr, ptr %2, align 8, !tbaa !16
  %11 = call ptr @Py_DecodeLocale(ptr noundef %10, ptr noundef null)
  store ptr %11, ptr %4, align 8, !tbaa !36
  %12 = load ptr, ptr %4, align 8, !tbaa !36
  %13 = icmp eq ptr %12, null
  br i1 %13, label %14, label %15

14:                                               ; preds = %9
  call void @error(ptr noundef @.str.204)
  store i32 1, ptr %1, align 4
  store i32 1, ptr %3, align 4
  br label %19

15:                                               ; preds = %9
  %16 = load ptr, ptr %4, align 8, !tbaa !36
  call void @Py_SetPath(ptr noundef %16)
  %17 = load ptr, ptr %4, align 8, !tbaa !36
  call void @PyMem_RawFree(ptr noundef %17)
  %18 = call i32 @putenv(ptr noundef @.str.205) #11
  call void @Py_Initialize()
  call void @dump_config()
  call void @Py_Finalize()
  store i32 0, ptr %1, align 4
  store i32 1, ptr %3, align 4
  br label %19

19:                                               ; preds = %15, %14
  call void @llvm.lifetime.end.p0(i64 8, ptr %4) #11
  br label %20

20:                                               ; preds = %19, %8
  call void @llvm.lifetime.end.p0(i64 8, ptr %2) #11
  %21 = load i32, ptr %1, align 4
  ret i32 %21
}